target datalayout = "e-m:e-p270:32:32-p271:32:32-p272:64:64-i64:64-i128:128-f80:128-n8:16:32:64-S128"
target triple = "x86_64-pc-linux-gnu"

%class.ReservedSpace = type <{ ptr, i64, i64, i64, i64, i8, [3 x i8], i32, i8, [7 x i8] }>
%class.G1PageBasedVirtualSpace = type <{ ptr, ptr, i64, i64, %class.CHeapBitMap, %class.CHeapBitMap, i8, [7 x i8] }>
%class.CHeapBitMap = type <{ %class.GrowableBitMap, i8, [7 x i8] }>
%class.GrowableBitMap = type { %class.BitMap }
%class.BitMap = type { ptr, i64 }

; Function Attrs: mustprogress nounwind uwtable
define linkonce_odr hidden void @_ZN6BitMap11verify_sizeEm(i64 noundef %0) #1 comdat align 2 {
  %2 = alloca i64, align 8
  store i64 %0, ptr %2, align 8
  ret void
}

; Function Attrs: mustprogress nounwind uwtable
define linkonce_odr hidden void @_ZN6BitMapC2EPmm(ptr noundef nonnull align 8 dereferenceable(16) %0, ptr noundef %1, i64 noundef %2) unnamed_addr #1 comdat align 2 {
  %4 = alloca ptr, align 8
  %5 = alloca ptr, align 8
  %6 = alloca i64, align 8
  store ptr %0, ptr %4, align 8
  store ptr %1, ptr %5, align 8
  store i64 %2, ptr %6, align 8
  %7 = load ptr, ptr %4, align 8
  %8 = getelementptr inbounds %class.BitMap, ptr %7, i32 0, i32 0
  %9 = load ptr, ptr %5, align 8
  store ptr %9, ptr %8, align 8
  %10 = getelementptr inbounds %class.BitMap, ptr %7, i32 0, i32 1
  %11 = load i64, ptr %6, align 8
  store i64 %11, ptr %10, align 8
  %12 = load i64, ptr %6, align 8
  call void @_ZN6BitMap11verify_sizeEm(i64 noundef %12)
  ret void
}

; Function Attrs: mustprogress nounwind uwtable
define linkonce_odr hidden void @_ZN14GrowableBitMapI11CHeapBitMapEC2EPmm(ptr noundef nonnull align 8 dereferenceable(16) %0, ptr noundef %1, i64 noundef %2) unnamed_addr #1 comdat align 2 {
  %4 = alloca ptr, align 8
  %5 = alloca ptr, align 8
  %6 = alloca i64, align 8
  store ptr %0, ptr %4, align 8
  store ptr %1, ptr %5, align 8
  store i64 %2, ptr %6, align 8
  %7 = load ptr, ptr %4, align 8
  %8 = load ptr, ptr %5, align 8
  %9 = load i64, ptr %6, align 8
  call void @_ZN6BitMapC2EPmm(ptr noundef nonnull align 8 dereferenceable(16) %7, ptr noundef %8, i64 noundef %9)
  ret void
}

; Function Attrs: mustprogress nounwind uwtable
define linkonce_odr hidden void @_ZN14GrowableBitMapI11CHeapBitMapEC2Ev(ptr noundef nonnull align 8 dereferenceable(16) %0) unnamed_addr #1 comdat align 2 {
  %2 = alloca ptr, align 8
  store ptr %0, ptr %2, align 8
  %3 = load ptr, ptr %2, align 8
  call void @_ZN14GrowableBitMapI11CHeapBitMapEC2EPmm(ptr noundef nonnull align 8 dereferenceable(16) %3, ptr noundef null, i64 noundef 0)
  ret void
}

; Function Attrs: mustprogress nounwind uwtable
define linkonce_odr hidden void @_ZN11CHeapBitMapC2E8MEMFLAGS(ptr noundef nonnull align 8 dereferenceable(17) %0, i8 noundef zeroext %1) unnamed_addr #1 comdat align 2 {
  %3 = alloca ptr, align 8
  %4 = alloca i8, align 1
  store ptr %0, ptr %3, align 8
  store i8 %1, ptr %4, align 1
  %5 = load ptr, ptr %3, align 8
  call void @_ZN14GrowableBitMapI11CHeapBitMapEC2Ev(ptr noundef nonnull align 8 dereferenceable(16) %5)
  %6 = getelementptr inbounds %class.CHeapBitMap, ptr %5, i32 0, i32 1
  %7 = load i8, ptr %4, align 1
  store i8 %7, ptr %6, align 8
  ret void
}

; Function Attrs: mustprogress nounwind uwtable
define hidden void @_ZN23G1PageBasedVirtualSpaceC2E13ReservedSpacemm(ptr noundef nonnull align 8 dereferenceable(81) %0, ptr noundef byval(%class.ReservedSpace) align 8 %1, i64 noundef %2, i64 noundef %3) unnamed_addr #1 align 2 {
  %5 = alloca ptr, align 8
  %6 = alloca i64, align 8
  %7 = alloca i64, align 8
  %8 = alloca %class.ReservedSpace, align 8
  store ptr %0, ptr %5, align 8
  store i64 %2, ptr %6, align 8
  store i64 %3, ptr %7, align 8
  %9 = load ptr, ptr %5, align 8
  %10 = getelementptr inbounds %class.G1PageBasedVirtualSpace, ptr %9, i32 0, i32 0
  store ptr null, ptr %10, align 8
  %11 = getelementptr inbounds %class.G1PageBasedVirtualSpace, ptr %9, i32 0, i32 1
  store ptr null, ptr %11, align 8
  %12 = getelementptr inbounds %class.G1PageBasedVirtualSpace, ptr %9, i32 0, i32 2
  store i64 0, ptr %12, align 8
  %13 = getelementptr inbounds %class.G1PageBasedVirtualSpace, ptr %9, i32 0, i32 3
  store i64 0, ptr %13, align 8
  %14 = getelementptr inbounds %class.G1PageBasedVirtualSpace, ptr %9, i32 0, i32 4
  call void @_ZN11CHeapBitMapC2E8MEMFLAGS(ptr noundef nonnull align 8 dereferenceable(17) %14, i8 noundef zeroext 5)
  %15 = getelementptr inbounds %class.G1PageBasedVirtualSpace, ptr %9, i32 0, i32 5
  call void @_ZN11CHeapBitMapC2E8MEMFLAGS(ptr noundef nonnull align 8 dereferenceable(17) %15, i8 noundef zeroext 5)
  %16 = getelementptr inbounds %class.G1PageBasedVirtualSpace, ptr %9, i32 0, i32 6
  store i8 0, ptr %16, align 8
  call void @llvm.memcpy.p0.p0.i64(ptr align 8 %8, ptr align 8 %1, i64 56, i1 false)
  %17 = load i64, ptr %6, align 8
  %18 = load i64, ptr %7, align 8
  call void @_ZN23G1PageBasedVirtualSpace25initialize_with_page_sizeE13ReservedSpacemm(ptr noundef nonnull align 8 dereferenceable(81) %9, ptr noundef byval(%class.ReservedSpace) align 8 %8, i64 noundef %17, i64 noundef %18)
  ret void
}