; Function Attrs: mustprogress nounwind uwtable
define hidden void @_ZN23G1PageBasedVirtualSpaceC2E13ReservedSpacemm(ptr noundef nonnull align 8 dereferenceable(81) %0, ptr nocapture noundef readonly byval(%class.ReservedSpace) align 8 %1, i64 noundef %2, i64 noundef %3) unnamed_addr #0 align 2 {
  %5 = getelementptr inbounds i8, ptr %0, i64 48
  tail call void @llvm.memset.p0.i64(ptr noundef nonnull align 8 dereferenceable(48) %0, i8 0, i64 48, i1 false)
  store i8 5, ptr %5, align 8
  %6 = getelementptr inbounds i8, ptr %0, i64 56
  tail call void @llvm.memset.p0.i64(ptr noundef nonnull align 8 dereferenceable(16) %6, i8 0, i64 16, i1 false)
  %7 = getelementptr inbounds i8, ptr %0, i64 72
  store i8 5, ptr %7, align 8
  %8 = getelementptr inbounds i8, ptr %0, i64 80
  store i8 0, ptr %8, align 8
  tail call void @_ZN23G1PageBasedVirtualSpace25initialize_with_page_sizeE13ReservedSpacemm(ptr noundef nonnull align 8 dereferenceable(81) %0, ptr noundef nonnull byval(%class.ReservedSpace) align 8 %1, i64 noundef %2, i64 noundef %3)
  ret void
}